target datalayout = "e-m:e-p270:32:32-p271:32:32-p272:64:64-i64:64-i128:128-f80:128-n8:16:32:64-S128"
target triple = "x86_64-pc-linux-gnu"

%struct.pcre2_memctl = type { ptr, ptr, ptr }
%struct.pcre2_real_convert_context_8 = type { %struct.pcre2_memctl, i32, i32 }

; Function Attrs: nounwind uwtable
define dso_local i32 @php_pcre2_set_glob_escape(ptr noundef %0, i32 noundef %1) #0 {
  %3 = alloca i32, align 4
  %4 = alloca ptr, align 8
  %5 = alloca i32, align 4
  store ptr %0, ptr %4, align 8, !tbaa !35
  store i32 %1, ptr %5, align 4, !tbaa !30
  %6 = load i32, ptr %5, align 4, !tbaa !30
  %7 = icmp ugt i32 %6, 255
  br i1 %7, label %21, label %8

8:                                                ; preds = %2
  %9 = load i32, ptr %5, align 4, !tbaa !30
  %10 = icmp ne i32 %9, 0
  br i1 %10, label %11, label %22

11:                                               ; preds = %8
  %12 = call ptr @__ctype_b_loc() #8
  %13 = load ptr, ptr %12, align 8, !tbaa !72
  %14 = load i32, ptr %5, align 4, !tbaa !30
  %15 = sext i32 %14 to i64
  %16 = getelementptr inbounds i16, ptr %13, i64 %15
  %17 = load i16, ptr %16, align 2, !tbaa !28
  %18 = zext i16 %17 to i32
  %19 = and i32 %18, 4
  %20 = icmp ne i32 %19, 0
  br i1 %20, label %22, label %21

21:                                               ; preds = %11, %2
  store i32 -29, ptr %3, align 4
  br label %26

22:                                               ; preds = %11, %8
  %23 = load i32, ptr %5, align 4, !tbaa !30
  %24 = load ptr, ptr %4, align 8, !tbaa !35
  %25 = getelementptr inbounds nuw %struct.pcre2_real_convert_context_8, ptr %24, i32 0, i32 2
  store i32 %23, ptr %25, align 4, !tbaa !74
  store i32 0, ptr %3, align 4
  br label %26

26:                                               ; preds = %22, %21
  %27 = load i32, ptr %3, align 4
  ret i32 %27
}