; Function Attrs: mustprogress nofree nosync nounwind willreturn memory(read, argmem: readwrite, inaccessiblemem: none) uwtable
define dso_local range(i32 -29, 1) i32 @php_pcre2_set_glob_escape(ptr noundef writeonly captures(none) %0, i32 noundef %1) local_unnamed_addr #8 {
  %3 = icmp ugt i32 %1, 255
  br i1 %3, label %14, label %4

4:                                                ; preds = %2
  %.not = icmp eq i32 %1, 0
  br i1 %.not, label %12, label %5

5:                                                ; preds = %4
  %6 = tail call ptr @__ctype_b_loc() #13
  %7 = load ptr, ptr %6, align 8, !tbaa !62
  %8 = zext nneg i32 %1 to i64
  %9 = getelementptr inbounds nuw i16, ptr %7, i64 %8
  %10 = load i16, ptr %9, align 2, !tbaa !22
  %11 = and i16 %10, 4
  %.not6 = icmp eq i16 %11, 0
  br i1 %.not6, label %14, label %12

12:                                               ; preds = %5, %4
  %13 = getelementptr inbounds nuw i8, ptr %0, i64 28
  store i32 %1, ptr %13, align 4, !tbaa !64
  br label %14

14:                                               ; preds = %2, %5, %12
  %.0 = phi i32 [ 0, %12 ], [ -29, %5 ], [ -29, %2 ]
  ret i32 %.0
}